target datalayout = "e-m:e-p270:32:32-p271:32:32-p272:64:64-i64:64-i128:128-f80:128-n8:16:32:64-S128"
target triple = "x86_64-pc-linux-gnu"

%struct._cms_typehandler_struct = type { i32, ptr, ptr, ptr, ptr, ptr, i32 }
%struct.cmsUcrBg = type { ptr, ptr, ptr }

; Function Attrs: nounwind uwtable
define internal void @Type_UcrBg_Free(ptr noundef %0, ptr noundef %1) #0 {
  %3 = alloca ptr, align 8
  %4 = alloca ptr, align 8
  %5 = alloca ptr, align 8
  store ptr %0, ptr %3, align 8
  store ptr %1, ptr %4, align 8
  %6 = load ptr, ptr %4, align 8
  store ptr %6, ptr %5, align 8
  %7 = load ptr, ptr %5, align 8
  %8 = getelementptr inbounds %struct.cmsUcrBg, ptr %7, i32 0, i32 0
  %9 = load ptr, ptr %8, align 8
  %10 = icmp ne ptr %9, null
  br i1 %10, label %11, label %15

11:                                               ; preds = %2
  %12 = load ptr, ptr %5, align 8
  %13 = getelementptr inbounds %struct.cmsUcrBg, ptr %12, i32 0, i32 0
  %14 = load ptr, ptr %13, align 8
  call void @cmsFreeToneCurve(ptr noundef %14)
  br label %15

15:                                               ; preds = %11, %2
  %16 = load ptr, ptr %5, align 8
  %17 = getelementptr inbounds %struct.cmsUcrBg, ptr %16, i32 0, i32 1
  %18 = load ptr, ptr %17, align 8
  %19 = icmp ne ptr %18, null
  br i1 %19, label %20, label %24

20:                                               ; preds = %15
  %21 = load ptr, ptr %5, align 8
  %22 = getelementptr inbounds %struct.cmsUcrBg, ptr %21, i32 0, i32 1
  %23 = load ptr, ptr %22, align 8
  call void @cmsFreeToneCurve(ptr noundef %23)
  br label %24

24:                                               ; preds = %20, %15
  %25 = load ptr, ptr %5, align 8
  %26 = getelementptr inbounds %struct.cmsUcrBg, ptr %25, i32 0, i32 2
  %27 = load ptr, ptr %26, align 8
  %28 = icmp ne ptr %27, null
  br i1 %28, label %29, label %33

29:                                               ; preds = %24
  %30 = load ptr, ptr %5, align 8
  %31 = getelementptr inbounds %struct.cmsUcrBg, ptr %30, i32 0, i32 2
  %32 = load ptr, ptr %31, align 8
  call void @cmsMLUfree(ptr noundef %32)
  br label %33

33:                                               ; preds = %29, %24
  %34 = load ptr, ptr %3, align 8
  %35 = getelementptr inbounds %struct._cms_typehandler_struct, ptr %34, i32 0, i32 5
  %36 = load ptr, ptr %35, align 8
  %37 = load ptr, ptr %4, align 8
  call void @_cmsFree(ptr noundef %36, ptr noundef %37)
  ret void
}