; Function Attrs: nounwind uwtable
define internal void @Type_UcrBg_Free(ptr nocapture noundef readonly %0, ptr noundef %1) #0 {
  %3 = load ptr, ptr %1, align 8
  %.not = icmp eq ptr %3, null
  br i1 %.not, label %5, label %4

4:                                                ; preds = %2
  tail call void @cmsFreeToneCurve(ptr noundef nonnull %3) #13
  br label %5

5:                                                ; preds = %4, %2
  %6 = getelementptr inbounds i8, ptr %1, i64 8
  %7 = load ptr, ptr %6, align 8
  %.not11 = icmp eq ptr %7, null
  br i1 %.not11, label %9, label %8

8:                                                ; preds = %5
  tail call void @cmsFreeToneCurve(ptr noundef nonnull %7) #13
  br label %9

9:                                                ; preds = %8, %5
  %10 = getelementptr inbounds i8, ptr %1, i64 16
  %11 = load ptr, ptr %10, align 8
  %.not12 = icmp eq ptr %11, null
  br i1 %.not12, label %13, label %12

12:                                               ; preds = %9
  tail call void @cmsMLUfree(ptr noundef nonnull %11) #13
  br label %13

13:                                               ; preds = %12, %9
  %14 = getelementptr inbounds i8, ptr %0, i64 40
  %15 = load ptr, ptr %14, align 8
  tail call void @_cmsFree(ptr noundef %15, ptr noundef nonnull %1) #13
  ret void
}